; Function Attrs: mustprogress uwtable
define dso_local noundef ptr @_ZN7V3Const26constifyGenerateParamsEditEP7AstNode(ptr noundef %0) #3 align 2 personality ptr @__gxx_personality_v0 {
  %2 = alloca %class.ConstVisitor, align 8
  %3 = tail call noundef ptr @_ZN7V3Width23widthGenerateParamsEditEP7AstNode(ptr noundef %0)
  call void @llvm.lifetime.start.p0(i64 232, ptr nonnull %2) #27
  call void @_ZN12ConstVisitorC2ENS_8ProcModeEb(ptr noundef nonnull align 8 dereferenceable(232) %2, i8 noundef zeroext 2, i1 noundef zeroext false)
  %.not.i = icmp eq ptr %3, null
  br i1 %.not.i, label %15, label %4

4:                                                ; preds = %1
  %5 = getelementptr inbounds nuw i8, ptr %3, i64 64
  %.sroa.0.0.copyload.i.i.i = load i16, ptr %5, align 8, !tbaa !4
  %6 = icmp eq i16 %.sroa.0.0.copyload.i.i.i, 49
  br i1 %6, label %_ZN7AstNode11privateCastI6AstVarPS_EEPT_S2_.exit, label %15

_ZN7AstNode11privateCastI6AstVarPS_EEPT_S2_.exit: ; preds = %4
  %7 = getelementptr inbounds nuw i8, ptr %3, i64 40
  %8 = load ptr, ptr %7, align 8, !tbaa !8
  %.not9 = icmp eq ptr %8, null
  br i1 %.not9, label %_ZN12ConstVisitor14mainAcceptEditEP7AstNode.exit, label %9

9:                                                ; preds = %_ZN7AstNode11privateCastI6AstVarPS_EEPT_S2_.exit
  %10 = load i64, ptr @_ZN9VIsCached14s_cachedCntGblE, align 8, !tbaa !21
  %11 = add i64 %10, 1
  store i64 %11, ptr @_ZN9VIsCached14s_cachedCntGblE, align 8, !tbaa !21
  %12 = invoke noundef ptr @_ZN7AstNode25iterateSubtreeReturnEditsER9VNVisitor(ptr noundef nonnull align 8 dereferenceable(152) %8, ptr noundef nonnull align 8 dereferenceable(232) %2)
          to label %_ZN12ConstVisitor14mainAcceptEditEP7AstNode.exit unwind label %13

13:                                               ; preds = %15, %9
  %14 = landingpad { ptr, i32 }
          cleanup
  call void @_ZN12ConstVisitorD2Ev(ptr noundef nonnull align 8 dereferenceable(232) %2) #27
  call void @llvm.lifetime.end.p0(i64 232, ptr nonnull %2) #27
  resume { ptr, i32 } %14

15:                                               ; preds = %1, %4
  %16 = load i64, ptr @_ZN9VIsCached14s_cachedCntGblE, align 8, !tbaa !21
  %17 = add i64 %16, 1
  store i64 %17, ptr @_ZN9VIsCached14s_cachedCntGblE, align 8, !tbaa !21
  %18 = invoke noundef ptr @_ZN7AstNode25iterateSubtreeReturnEditsER9VNVisitor(ptr noundef nonnull align 8 dereferenceable(152) %3, ptr noundef nonnull align 8 dereferenceable(232) %2)
          to label %_ZN12ConstVisitor14mainAcceptEditEP7AstNode.exit unwind label %13

_ZN12ConstVisitor14mainAcceptEditEP7AstNode.exit: ; preds = %15, %9, %_ZN7AstNode11privateCastI6AstVarPS_EEPT_S2_.exit
  %.0 = phi ptr [ %3, %_ZN7AstNode11privateCastI6AstVarPS_EEPT_S2_.exit ], [ %3, %9 ], [ %18, %15 ]
  call void @_ZN12ConstVisitorD2Ev(ptr noundef nonnull align 8 dereferenceable(232) %2) #27
  call void @llvm.lifetime.end.p0(i64 232, ptr nonnull %2) #27
  ret ptr %.0
}